target datalayout = "e-m:e-p270:32:32-p271:32:32-p272:64:64-i64:64-i128:128-f80:128-n8:16:32:64-S128"
target triple = "x86_64-pc-linux-gnu"

%struct.Vec_Wrd_t_ = type { i32, i32, ptr }

; Function Attrs: nounwind uwtable
define internal void @Abc_TtSharp(ptr noundef %0, ptr noundef %1, ptr noundef %2, i32 noundef %3) #0 {
  %5 = alloca ptr, align 8
  %6 = alloca ptr, align 8
  %7 = alloca ptr, align 8
  %8 = alloca i32, align 4
  %9 = alloca i32, align 4
  store ptr %0, ptr %5, align 8
  store ptr %1, ptr %6, align 8
  store ptr %2, ptr %7, align 8
  store i32 %3, ptr %8, align 4
  store i32 0, ptr %9, align 4
  br label %10

10:                                               ; preds = %31, %4
  %11 = load i32, ptr %9, align 4
  %12 = load i32, ptr %8, align 4
  %13 = icmp slt i32 %11, %12
  br i1 %13, label %14, label %34

14:                                               ; preds = %10
  %15 = load ptr, ptr %6, align 8
  %16 = load i32, ptr %9, align 4
  %17 = sext i32 %16 to i64
  %18 = getelementptr inbounds i64, ptr %15, i64 %17
  %19 = load i64, ptr %18, align 8
  %20 = load ptr, ptr %7, align 8
  %21 = load i32, ptr %9, align 4
  %22 = sext i32 %21 to i64
  %23 = getelementptr inbounds i64, ptr %20, i64 %22
  %24 = load i64, ptr %23, align 8
  %25 = xor i64 %24, -1
  %26 = and i64 %19, %25
  %27 = load ptr, ptr %5, align 8
  %28 = load i32, ptr %9, align 4
  %29 = sext i32 %28 to i64
  %30 = getelementptr inbounds i64, ptr %27, i64 %29
  store i64 %26, ptr %30, align 8
  br label %31

31:                                               ; preds = %14
  %32 = load i32, ptr %9, align 4
  %33 = add nsw i32 %32, 1
  store i32 %33, ptr %9, align 4
  br label %10, !llvm.loop !19

34:                                               ; preds = %10
  ret void
}

; Function Attrs: nounwind uwtable
define internal void @Abc_TtNot(ptr noundef %0, i32 noundef %1) #0 {
  %3 = alloca ptr, align 8
  %4 = alloca i32, align 4
  %5 = alloca i32, align 4
  store ptr %0, ptr %3, align 8
  store i32 %1, ptr %4, align 4
  store i32 0, ptr %5, align 4
  br label %6

6:                                                ; preds = %21, %2
  %7 = load i32, ptr %5, align 4
  %8 = load i32, ptr %4, align 4
  %9 = icmp slt i32 %7, %8
  br i1 %9, label %10, label %24

10:                                               ; preds = %6
  %11 = load ptr, ptr %3, align 8
  %12 = load i32, ptr %5, align 4
  %13 = sext i32 %12 to i64
  %14 = getelementptr inbounds i64, ptr %11, i64 %13
  %15 = load i64, ptr %14, align 8
  %16 = xor i64 %15, -1
  %17 = load ptr, ptr %3, align 8
  %18 = load i32, ptr %5, align 4
  %19 = sext i32 %18 to i64
  %20 = getelementptr inbounds i64, ptr %17, i64 %19
  store i64 %16, ptr %20, align 8
  br label %21

21:                                               ; preds = %10
  %22 = load i32, ptr %5, align 4
  %23 = add nsw i32 %22, 1
  store i32 %23, ptr %5, align 4
  br label %6, !llvm.loop !20

24:                                               ; preds = %6
  ret void
}

; Function Attrs: nounwind uwtable
define internal void @Abc_TtOr(ptr noundef %0, ptr noundef %1, ptr noundef %2, i32 noundef %3) #0 {
  %5 = alloca ptr, align 8
  %6 = alloca ptr, align 8
  %7 = alloca ptr, align 8
  %8 = alloca i32, align 4
  %9 = alloca i32, align 4
  store ptr %0, ptr %5, align 8
  store ptr %1, ptr %6, align 8
  store ptr %2, ptr %7, align 8
  store i32 %3, ptr %8, align 4
  store i32 0, ptr %9, align 4
  br label %10

10:                                               ; preds = %30, %4
  %11 = load i32, ptr %9, align 4
  %12 = load i32, ptr %8, align 4
  %13 = icmp slt i32 %11, %12
  br i1 %13, label %14, label %33

14:                                               ; preds = %10
  %15 = load ptr, ptr %6, align 8
  %16 = load i32, ptr %9, align 4
  %17 = sext i32 %16 to i64
  %18 = getelementptr inbounds i64, ptr %15, i64 %17
  %19 = load i64, ptr %18, align 8
  %20 = load ptr, ptr %7, align 8
  %21 = load i32, ptr %9, align 4
  %22 = sext i32 %21 to i64
  %23 = getelementptr inbounds i64, ptr %20, i64 %22
  %24 = load i64, ptr %23, align 8
  %25 = or i64 %19, %24
  %26 = load ptr, ptr %5, align 8
  %27 = load i32, ptr %9, align 4
  %28 = sext i32 %27 to i64
  %29 = getelementptr inbounds i64, ptr %26, i64 %28
  store i64 %25, ptr %29, align 8
  br label %30

30:                                               ; preds = %14
  %31 = load i32, ptr %9, align 4
  %32 = add nsw i32 %31, 1
  store i32 %32, ptr %9, align 4
  br label %10, !llvm.loop !18

33:                                               ; preds = %10
  ret void
}

; Function Attrs: nounwind uwtable
define internal ptr @Vec_WrdEntryP(ptr noundef %0, i32 noundef %1) #0 {
  %3 = alloca ptr, align 8
  %4 = alloca i32, align 4
  store ptr %0, ptr %3, align 8
  store i32 %1, ptr %4, align 4
  %5 = load ptr, ptr %3, align 8
  %6 = getelementptr inbounds %struct.Vec_Wrd_t_, ptr %5, i32 0, i32 2
  %7 = load ptr, ptr %6, align 8
  %8 = load i32, ptr %4, align 4
  %9 = sext i32 %8 to i64
  %10 = getelementptr inbounds i64, ptr %7, i64 %9
  ret ptr %10
}

; Function Attrs: nounwind uwtable
define internal i32 @Abc_Truth6WordNum(i32 noundef %0) #0 {
  %2 = alloca i32, align 4
  store i32 %0, ptr %2, align 4
  %3 = load i32, ptr %2, align 4
  %4 = icmp sle i32 %3, 6
  br i1 %4, label %5, label %6

5:                                                ; preds = %1
  br label %10

6:                                                ; preds = %1
  %7 = load i32, ptr %2, align 4
  %8 = sub nsw i32 %7, 6
  %9 = shl i32 1, %8
  br label %10

10:                                               ; preds = %6, %5
  %11 = phi i32 [ 1, %5 ], [ %9, %6 ]
  ret i32 %11
}

; Function Attrs: nounwind uwtable
define ptr @Gia_ManDeriveBdd(ptr noundef %0, i32 noundef %1) #0 {
  %3 = alloca ptr, align 8
  %4 = alloca i32, align 4
  %5 = alloca ptr, align 8
  %6 = alloca i32, align 4
  %7 = alloca [2 x ptr], align 16
  %8 = alloca ptr, align 8
  store ptr %0, ptr %3, align 8
  store i32 %1, ptr %4, align 4
  store ptr null, ptr %5, align 8
  %9 = load i32, ptr %4, align 4
  %10 = call i32 @Abc_Truth6WordNum(i32 noundef %9)
  store i32 %10, ptr %6, align 4
  %11 = getelementptr inbounds [2 x ptr], ptr %7, i64 0, i64 0
  %12 = load ptr, ptr %3, align 8
  %13 = load i32, ptr %6, align 4
  %14 = mul nsw i32 0, %13
  %15 = call ptr @Vec_WrdEntryP(ptr noundef %12, i32 noundef %14)
  store ptr %15, ptr %11, align 8
  %16 = getelementptr inbounds ptr, ptr %11, i64 1
  %17 = load ptr, ptr %3, align 8
  %18 = load i32, ptr %6, align 4
  %19 = mul nsw i32 1, %18
  %20 = call ptr @Vec_WrdEntryP(ptr noundef %17, i32 noundef %19)
  store ptr %20, ptr %16, align 8
  %21 = getelementptr inbounds [2 x ptr], ptr %7, i64 0, i64 1
  %22 = load ptr, ptr %21, align 8
  %23 = getelementptr inbounds [2 x ptr], ptr %7, i64 0, i64 1
  %24 = load ptr, ptr %23, align 8
  %25 = getelementptr inbounds [2 x ptr], ptr %7, i64 0, i64 0
  %26 = load ptr, ptr %25, align 16
  %27 = load i32, ptr %6, align 4
  call void @Abc_TtOr(ptr noundef %22, ptr noundef %24, ptr noundef %26, i32 noundef %27)
  %28 = getelementptr inbounds [2 x ptr], ptr %7, i64 0, i64 0
  %29 = load ptr, ptr %28, align 16
  %30 = load i32, ptr %6, align 4
  call void @Abc_TtNot(ptr noundef %29, i32 noundef %30)
  %31 = getelementptr inbounds [2 x ptr], ptr %7, i64 0, i64 0
  %32 = load ptr, ptr %31, align 16
  %33 = load i32, ptr %4, align 4
  %34 = load i32, ptr %6, align 4
  %35 = call ptr @Gia_TryPermOptNew(ptr noundef %32, i32 noundef %33, i32 noundef 1, i32 noundef %34, i32 noundef 50, i32 noundef 0)
  store ptr %35, ptr %8, align 8
  %36 = getelementptr inbounds [2 x ptr], ptr %7, i64 0, i64 0
  %37 = load ptr, ptr %36, align 16
  %38 = load i32, ptr %6, align 4
  call void @Abc_TtNot(ptr noundef %37, i32 noundef %38)
  %39 = getelementptr inbounds [2 x ptr], ptr %7, i64 0, i64 1
  %40 = load ptr, ptr %39, align 8
  %41 = getelementptr inbounds [2 x ptr], ptr %7, i64 0, i64 1
  %42 = load ptr, ptr %41, align 8
  %43 = getelementptr inbounds [2 x ptr], ptr %7, i64 0, i64 0
  %44 = load ptr, ptr %43, align 16
  %45 = load i32, ptr %6, align 4
  call void @Abc_TtSharp(ptr noundef %40, ptr noundef %42, ptr noundef %44, i32 noundef %45)
  %46 = load ptr, ptr %8, align 8
  %47 = call ptr @Gia_ManToGates(ptr noundef %46)
  store ptr %47, ptr %5, align 8
  %48 = load ptr, ptr %8, align 8
  call void @Gia_ManStop(ptr noundef %48)
  %49 = load ptr, ptr %5, align 8
  ret ptr %49
}