; Function Attrs: nounwind uwtable
define ptr @Gia_ManDeriveBdd(ptr noundef readonly captures(none) %0, i32 noundef %1) local_unnamed_addr #2 {
  %3 = icmp slt i32 %1, 7
  %4 = add nsw i32 %1, -6
  %5 = shl nuw i32 1, %4
  %6 = select i1 %3, i32 1, i32 %5
  %7 = getelementptr i8, ptr %0, i64 8
  %.val20 = load ptr, ptr %7, align 8
  %8 = sext i32 %6 to i64
  %9 = getelementptr inbounds i64, ptr %.val20, i64 %8
  %10 = icmp sgt i32 %6, 0
  br i1 %10, label %.lr.ph.preheader.i, label %Abc_TtNot.exit.thread

.lr.ph.preheader.i:                               ; preds = %2
  %wide.trip.count.i = zext nneg i32 %6 to i64
  br label %.lr.ph.i

.lr.ph.i:                                         ; preds = %.lr.ph.i, %.lr.ph.preheader.i
  %indvars.iv.i = phi i64 [ 0, %.lr.ph.preheader.i ], [ %indvars.iv.next.i, %.lr.ph.i ]
  %11 = getelementptr inbounds nuw i64, ptr %9, i64 %indvars.iv.i
  %12 = load i64, ptr %11, align 8
  %13 = getelementptr inbounds nuw i64, ptr %.val20, i64 %indvars.iv.i
  %14 = load i64, ptr %13, align 8
  %15 = or i64 %14, %12
  store i64 %15, ptr %11, align 8
  %indvars.iv.next.i = add nuw nsw i64 %indvars.iv.i, 1
  %exitcond.not.i = icmp eq i64 %indvars.iv.next.i, %wide.trip.count.i
  br i1 %exitcond.not.i, label %.lr.ph.i23, label %.lr.ph.i, !llvm.loop !16

.lr.ph.i23:                                       ; preds = %.lr.ph.i, %.lr.ph.i23
  %indvars.iv.i24 = phi i64 [ %indvars.iv.next.i25, %.lr.ph.i23 ], [ 0, %.lr.ph.i ]
  %16 = getelementptr inbounds nuw i64, ptr %.val20, i64 %indvars.iv.i24
  %17 = load i64, ptr %16, align 8
  %18 = xor i64 %17, -1
  store i64 %18, ptr %16, align 8
  %indvars.iv.next.i25 = add nuw nsw i64 %indvars.iv.i24, 1
  %exitcond.not.i26 = icmp eq i64 %indvars.iv.next.i25, %wide.trip.count.i
  br i1 %exitcond.not.i26, label %Abc_TtNot.exit, label %.lr.ph.i23, !llvm.loop !18

Abc_TtNot.exit.thread:                            ; preds = %2
  %19 = tail call ptr @Gia_TryPermOptNew(ptr noundef %.val20, i32 noundef %1, i32 noundef 1, i32 noundef %6, i32 noundef 50, i32 noundef 0) #14
  br label %Abc_TtSharp.exit

Abc_TtNot.exit:                                   ; preds = %.lr.ph.i23
  %20 = tail call ptr @Gia_TryPermOptNew(ptr noundef nonnull %.val20, i32 noundef %1, i32 noundef 1, i32 noundef %6, i32 noundef 50, i32 noundef 0) #14
  br label %.lr.ph.i29

.lr.ph.i29:                                       ; preds = %.lr.ph.i29, %Abc_TtNot.exit
  %indvars.iv.i30 = phi i64 [ 0, %Abc_TtNot.exit ], [ %indvars.iv.next.i31, %.lr.ph.i29 ]
  %21 = getelementptr inbounds nuw i64, ptr %.val20, i64 %indvars.iv.i30
  %22 = load i64, ptr %21, align 8
  %23 = xor i64 %22, -1
  store i64 %23, ptr %21, align 8
  %indvars.iv.next.i31 = add nuw nsw i64 %indvars.iv.i30, 1
  %exitcond.not.i32 = icmp eq i64 %indvars.iv.next.i31, %wide.trip.count.i
  br i1 %exitcond.not.i32, label %.lr.ph.i36, label %.lr.ph.i29, !llvm.loop !18

.lr.ph.i36:                                       ; preds = %.lr.ph.i29, %.lr.ph.i36
  %indvars.iv.i37 = phi i64 [ %indvars.iv.next.i38, %.lr.ph.i36 ], [ 0, %.lr.ph.i29 ]
  %24 = getelementptr inbounds nuw i64, ptr %9, i64 %indvars.iv.i37
  %25 = load i64, ptr %24, align 8
  %26 = getelementptr inbounds nuw i64, ptr %.val20, i64 %indvars.iv.i37
  %27 = load i64, ptr %26, align 8
  %28 = xor i64 %27, -1
  %29 = and i64 %25, %28
  store i64 %29, ptr %24, align 8
  %indvars.iv.next.i38 = add nuw nsw i64 %indvars.iv.i37, 1
  %exitcond.not.i39 = icmp eq i64 %indvars.iv.next.i38, %wide.trip.count.i
  br i1 %exitcond.not.i39, label %Abc_TtSharp.exit, label %.lr.ph.i36, !llvm.loop !17

Abc_TtSharp.exit:                                 ; preds = %.lr.ph.i36, %Abc_TtNot.exit.thread
  %30 = phi ptr [ %19, %Abc_TtNot.exit.thread ], [ %20, %.lr.ph.i36 ]
  %31 = tail call ptr @Gia_ManToGates(ptr noundef %30) #14
  tail call void @Gia_ManStop(ptr noundef %30) #14
  ret ptr %31
}